target datalayout = "e-m:e-p270:32:32-p271:32:32-p272:64:64-i64:64-i128:128-f80:128-n8:16:32:64-S128"
target triple = "x86_64-pc-linux-gnu"

%struct._zend_phpdbg_globals = type { [11 x %struct._zend_array], %struct._zend_array, %struct._zend_array, ptr, ptr, %struct.phpdbg_frame_t, i32, ptr, %struct.phpdbg_lexer_data, ptr, %struct.sigaction, i32, i64, %struct.phpdbg_btree, %struct.phpdbg_btree, %struct._zend_array, %struct._zend_array, %struct._zend_array, %struct._zend_array, ptr, ptr, i8, ptr, ptr, ptr, i64, ptr, %struct._zval_struct, i32, i32, i8, i8, ptr, ptr, ptr, %struct._zend_array, ptr, ptr, ptr, [3 x %struct.anon.8], ptr, %struct.anon.9, i64, [2 x ptr], [3 x ptr], ptr, i8, ptr, ptr, [500 x i8], i32, %struct.phpdbg_signal_safe_mem, ptr, i64, ptr, i64 }
%struct.phpdbg_frame_t = type { i32, ptr, ptr }
%struct.phpdbg_lexer_data = type { i32, ptr, ptr, ptr, ptr, i32 }
%struct.sigaction = type { %union.anon.7, %struct.__sigset_t, i32, ptr }
%union.anon.7 = type { ptr }
%struct.__sigset_t = type { [16 x i64] }
%struct.phpdbg_btree = type { i64, i64, i8, ptr }
%struct._zval_struct = type { %union._zend_value, %union.anon, %union.anon.2 }
%union._zend_value = type { i64 }
%union.anon = type { i32 }
%union.anon.2 = type { i32 }
%struct._zend_array = type { %struct._zend_refcounted_h, %union.anon.4, i32, %union.anon.6, i32, i32, i32, i32, i64, ptr }
%struct._zend_refcounted_h = type { i32, %union.anon.3 }
%union.anon.3 = type { i32 }
%union.anon.4 = type { i32 }
%union.anon.6 = type { ptr }
%struct.anon.8 = type { i32 }
%struct.anon.9 = type { i8, i32, i32, ptr, i32 }
%struct.phpdbg_signal_safe_mem = type { ptr, i8, ptr, ptr }
%struct._Bucket = type { %struct._zval_struct, i64, ptr }
%struct._phpdbg_watchpoint_t = type { %union.anon.27, i64, i32, ptr, %struct._zend_array, ptr, %union.anon.28 }
%union.anon.27 = type { ptr }
%union.anon.28 = type { %struct._zend_array }
%struct.uffdio_writeprotect = type { %struct.uffdio_range, i64 }
%struct.uffdio_range = type { i64, i64 }
%struct.uffdio_register = type { %struct.uffdio_range, i64, i64 }

@phpdbg_globals = external global %struct._zend_phpdbg_globals, align 8
@phpdbg_pagesize = internal global i64 0, align 8

; Function Attrs: nounwind uwtable
define internal void @phpdbg_change_watchpoint_access(ptr noundef %0, i32 noundef %1) #0 {
  %3 = alloca ptr, align 8
  %4 = alloca ptr, align 8
  %5 = alloca ptr, align 8
  %6 = alloca i64, align 8
  %7 = alloca ptr, align 8
  %8 = alloca ptr, align 8
  %9 = alloca i32, align 4
  %10 = alloca ptr, align 8
  %11 = alloca i64, align 8
  %12 = alloca %struct.uffdio_range, align 8
  %13 = alloca %struct.uffdio_register, align 8
  %14 = alloca %struct.uffdio_writeprotect, align 8
  %15 = alloca %struct.uffdio_register, align 8
  store ptr %0, ptr %8, align 8
  store i32 %1, ptr %9, align 4
  %16 = load ptr, ptr %8, align 8
  %17 = getelementptr inbounds %struct._phpdbg_watchpoint_t, ptr %16, i32 0, i32 0
  %18 = load ptr, ptr %17, align 8
  store ptr %18, ptr %7, align 8
  %19 = load ptr, ptr %7, align 8
  %20 = ptrtoint ptr %19 to i64
  %21 = load i64, ptr @phpdbg_pagesize, align 8
  %22 = sub nsw i64 %21, 1
  %23 = xor i64 %22, -1
  %24 = and i64 %20, %23
  %25 = inttoptr i64 %24 to ptr
  store ptr %25, ptr %10, align 8
  %26 = load ptr, ptr %8, align 8
  %27 = getelementptr inbounds %struct._phpdbg_watchpoint_t, ptr %26, i32 0, i32 0
  %28 = load ptr, ptr %27, align 8
  %29 = load ptr, ptr %8, align 8
  %30 = getelementptr inbounds %struct._phpdbg_watchpoint_t, ptr %29, i32 0, i32 1
  %31 = load i64, ptr %30, align 8
  store ptr %28, ptr %5, align 8
  store i64 %31, ptr %6, align 8
  %32 = load ptr, ptr %5, align 8
  %33 = ptrtoint ptr %32 to i64
  %34 = load i64, ptr %6, align 8
  %35 = add i64 %33, %34
  %36 = sub i64 %35, 1
  %37 = inttoptr i64 %36 to ptr
  store ptr %37, ptr %3, align 8
  %38 = load ptr, ptr %3, align 8
  %39 = ptrtoint ptr %38 to i64
  %40 = load i64, ptr @phpdbg_pagesize, align 8
  %41 = sub nsw i64 %40, 1
  %42 = xor i64 %41, -1
  %43 = and i64 %39, %42
  %44 = load ptr, ptr %5, align 8
  store ptr %44, ptr %4, align 8
  %45 = load ptr, ptr %4, align 8
  %46 = ptrtoint ptr %45 to i64
  %47 = load i64, ptr @phpdbg_pagesize, align 8
  %48 = sub nsw i64 %47, 1
  %49 = xor i64 %48, -1
  %50 = and i64 %46, %49
  %51 = sub i64 %43, %50
  %52 = load i64, ptr @phpdbg_pagesize, align 8
  %53 = add i64 %51, %52
  store i64 %53, ptr %11, align 8
  %54 = load i32, ptr getelementptr inbounds (%struct._zend_phpdbg_globals, ptr @phpdbg_globals, i32 0, i32 11), align 8
  %55 = icmp ne i32 %54, 0
  br i1 %55, label %56, label %81

56:                                               ; preds = %2
  %57 = getelementptr inbounds %struct.uffdio_range, ptr %12, i32 0, i32 0
  %58 = load ptr, ptr %10, align 8
  %59 = ptrtoint ptr %58 to i64
  store i64 %59, ptr %57, align 8
  %60 = getelementptr inbounds %struct.uffdio_range, ptr %12, i32 0, i32 1
  %61 = load i64, ptr %11, align 8
  store i64 %61, ptr %60, align 8
  %62 = load i32, ptr %9, align 4
  %63 = icmp eq i32 %62, 1
  br i1 %63, label %64, label %74

64:                                               ; preds = %56
  %65 = getelementptr inbounds %struct.uffdio_register, ptr %13, i32 0, i32 0
  call void @llvm.memcpy.p0.p0.i64(ptr align 8 %65, ptr align 8 %12, i64 16, i1 false)
  %66 = getelementptr inbounds %struct.uffdio_register, ptr %13, i32 0, i32 1
  store i64 2, ptr %66, align 8
  %67 = getelementptr inbounds %struct.uffdio_register, ptr %13, i32 0, i32 2
  store i64 0, ptr %67, align 8
  %68 = getelementptr inbounds %struct.uffdio_writeprotect, ptr %14, i32 0, i32 0
  call void @llvm.memcpy.p0.p0.i64(ptr align 8 %68, ptr align 8 %12, i64 16, i1 false)
  %69 = getelementptr inbounds %struct.uffdio_writeprotect, ptr %14, i32 0, i32 1
  store i64 1, ptr %69, align 8
  %70 = load i32, ptr getelementptr inbounds (%struct._zend_phpdbg_globals, ptr @phpdbg_globals, i32 0, i32 11), align 8
  %71 = call i32 (i32, i64, ...) @ioctl(i32 noundef %70, i64 noundef 3223366144, ptr noundef %13) #11
  %72 = load i32, ptr getelementptr inbounds (%struct._zend_phpdbg_globals, ptr @phpdbg_globals, i32 0, i32 11), align 8
  %73 = call i32 (i32, i64, ...) @ioctl(i32 noundef %72, i64 noundef 3222841862, ptr noundef %14) #11
  br label %80

74:                                               ; preds = %56
  %75 = getelementptr inbounds %struct.uffdio_register, ptr %15, i32 0, i32 0
  call void @llvm.memcpy.p0.p0.i64(ptr align 8 %75, ptr align 8 %12, i64 16, i1 false)
  %76 = getelementptr inbounds %struct.uffdio_register, ptr %15, i32 0, i32 1
  store i64 2, ptr %76, align 8
  %77 = getelementptr inbounds %struct.uffdio_register, ptr %15, i32 0, i32 2
  store i64 0, ptr %77, align 8
  %78 = load i32, ptr getelementptr inbounds (%struct._zend_phpdbg_globals, ptr @phpdbg_globals, i32 0, i32 11), align 8
  %79 = call i32 (i32, i64, ...) @ioctl(i32 noundef %78, i64 noundef 2148575745, ptr noundef %15) #11
  br label %80

80:                                               ; preds = %74, %64
  br label %86

81:                                               ; preds = %2
  %82 = load ptr, ptr %10, align 8
  %83 = load i64, ptr %11, align 8
  %84 = load i32, ptr %9, align 4
  %85 = call i32 @mprotect(ptr noundef %82, i64 noundef %83, i32 noundef %84) #11
  br label %86

86:                                               ; preds = %81, %80
  ret void
}

; Function Attrs: nounwind uwtable
define internal void @phpdbg_deactivate_watchpoint(ptr noundef %0) #0 {
  %2 = alloca ptr, align 8
  store ptr %0, ptr %2, align 8
  %3 = load ptr, ptr %2, align 8
  call void @phpdbg_change_watchpoint_access(ptr noundef %3, i32 noundef 3)
  ret void
}

; Function Attrs: nounwind uwtable
define internal void @phpdbg_remove_watchpoint_btree(ptr noundef %0) #0 {
  %2 = alloca ptr, align 8
  store ptr %0, ptr %2, align 8
  %3 = load ptr, ptr %2, align 8
  %4 = getelementptr inbounds %struct._phpdbg_watchpoint_t, ptr %3, i32 0, i32 0
  %5 = load ptr, ptr %4, align 8
  %6 = ptrtoint ptr %5 to i64
  %7 = call i32 @phpdbg_btree_delete(ptr noundef getelementptr inbounds (%struct._zend_phpdbg_globals, ptr @phpdbg_globals, i32 0, i32 13), i64 noundef %6)
  ret void
}

; Function Attrs: nounwind uwtable
define hidden void @phpdbg_remove_watchpoint(ptr noundef %0) #0 {
  %2 = alloca ptr, align 8
  %3 = alloca ptr, align 8
  %4 = alloca ptr, align 8
  %5 = alloca ptr, align 8
  %6 = alloca ptr, align 8
  %7 = alloca ptr, align 8
  %8 = alloca ptr, align 8
  store ptr %0, ptr %3, align 8
  %9 = load ptr, ptr %3, align 8
  call void @phpdbg_remove_watchpoint_btree(ptr noundef %9)
  %10 = load ptr, ptr %3, align 8
  call void @phpdbg_deactivate_watchpoint(ptr noundef %10)
  %11 = load ptr, ptr %3, align 8
  call void @phpdbg_delete_watch_collision(ptr noundef %11)
  %12 = load ptr, ptr %3, align 8
  %13 = getelementptr inbounds %struct._phpdbg_watchpoint_t, ptr %12, i32 0, i32 5
  %14 = load ptr, ptr %13, align 8
  %15 = icmp ne ptr %14, null
  br i1 %15, label %16, label %18

16:                                               ; preds = %1
  %17 = load ptr, ptr %3, align 8
  call void @phpdbg_update_watch_collision_elements(ptr noundef %17)
  br label %77

18:                                               ; preds = %1
  %19 = load ptr, ptr %3, align 8
  %20 = getelementptr inbounds %struct._phpdbg_watchpoint_t, ptr %19, i32 0, i32 4
  %21 = getelementptr inbounds %struct._zend_array, ptr %20, i32 0, i32 5
  %22 = load i32, ptr %21, align 4
  %23 = add i32 %22, 1
  store i32 %23, ptr %21, align 4
  br label %24

24:                                               ; preds = %18
  %25 = load ptr, ptr %3, align 8
  %26 = getelementptr inbounds %struct._phpdbg_watchpoint_t, ptr %25, i32 0, i32 4
  store ptr %26, ptr %5, align 8
  %27 = load ptr, ptr %5, align 8
  %28 = getelementptr inbounds %struct._zend_array, ptr %27, i32 0, i32 3
  %29 = load ptr, ptr %28, align 8
  %30 = getelementptr inbounds %struct._Bucket, ptr %29, i64 0
  store ptr %30, ptr %6, align 8
  %31 = load ptr, ptr %5, align 8
  %32 = getelementptr inbounds %struct._zend_array, ptr %31, i32 0, i32 3
  %33 = load ptr, ptr %32, align 8
  %34 = load ptr, ptr %5, align 8
  %35 = getelementptr inbounds %struct._zend_array, ptr %34, i32 0, i32 4
  %36 = load i32, ptr %35, align 8
  %37 = zext i32 %36 to i64
  %38 = getelementptr inbounds %struct._Bucket, ptr %33, i64 %37
  store ptr %38, ptr %7, align 8
  %39 = load ptr, ptr %5, align 8
  %40 = getelementptr inbounds %struct._zend_array, ptr %39, i32 0, i32 1
  %41 = load i32, ptr %40, align 8
  %42 = and i32 %41, 4
  %43 = icmp ne i32 %42, 0
  %44 = xor i1 %43, true
  call void @llvm.assume(i1 %44)
  br label %45

45:                                               ; preds = %69, %24
  %46 = load ptr, ptr %6, align 8
  %47 = load ptr, ptr %7, align 8
  %48 = icmp ne ptr %46, %47
  br i1 %48, label %49, label %72

49:                                               ; preds = %45
  %50 = load ptr, ptr %6, align 8
  %51 = getelementptr inbounds %struct._Bucket, ptr %50, i32 0, i32 0
  store ptr %51, ptr %8, align 8
  %52 = load ptr, ptr %8, align 8
  store ptr %52, ptr %2, align 8
  %53 = load ptr, ptr %2, align 8
  %54 = getelementptr inbounds %struct._zval_struct, ptr %53, i32 0, i32 1
  %55 = load i8, ptr %54, align 8
  %56 = zext i8 %55 to i32
  %57 = icmp eq i32 %56, 0
  %58 = xor i1 %57, true
  %59 = xor i1 %58, true
  %60 = zext i1 %59 to i32
  %61 = sext i32 %60 to i64
  %62 = icmp ne i64 %61, 0
  br i1 %62, label %63, label %64

63:                                               ; preds = %49
  br label %69

64:                                               ; preds = %49
  %65 = load ptr, ptr %8, align 8
  %66 = getelementptr inbounds %struct._zval_struct, ptr %65, i32 0, i32 0
  %67 = load ptr, ptr %66, align 8
  store ptr %67, ptr %4, align 8
  %68 = load ptr, ptr %4, align 8
  call void @phpdbg_update_watch_element_watch(ptr noundef %68)
  br label %69

69:                                               ; preds = %64, %63
  %70 = load ptr, ptr %6, align 8
  %71 = getelementptr inbounds %struct._Bucket, ptr %70, i32 1
  store ptr %71, ptr %6, align 8
  br label %45

72:                                               ; preds = %45
  br label %73

73:                                               ; preds = %72
  %74 = load ptr, ptr %3, align 8
  %75 = getelementptr inbounds %struct._phpdbg_watchpoint_t, ptr %74, i32 0, i32 4
  call void @zend_hash_destroy(ptr noundef %75)
  %76 = load ptr, ptr %3, align 8
  call void @_efree(ptr noundef %76)
  br label %77

77:                                               ; preds = %73, %16
  ret void
}