; Function Attrs: nounwind uwtable
define hidden void @phpdbg_remove_watchpoint(ptr noundef %0) local_unnamed_addr #0 {
  %2 = alloca %struct.uffdio_register, align 8
  %.val = load ptr, ptr %0, align 8
  %3 = ptrtoint ptr %.val to i64
  %4 = tail call i32 @phpdbg_btree_delete(ptr noundef nonnull getelementptr inbounds (%struct._zend_phpdbg_globals, ptr @phpdbg_globals, i64 0, i32 13), i64 noundef %3) #17
  %.val23 = load ptr, ptr %0, align 8
  %5 = getelementptr i8, ptr %0, i64 8
  %.val24 = load i64, ptr %5, align 8
  call void @llvm.lifetime.start.p0(i64 32, ptr nonnull %2)
  %6 = ptrtoint ptr %.val23 to i64
  %7 = load i64, ptr @phpdbg_pagesize, align 8
  %8 = sub i64 0, %7
  %9 = and i64 %8, %6
  %10 = add i64 %.val24, -1
  %11 = add i64 %10, %6
  %12 = and i64 %11, %8
  %13 = sub i64 %12, %9
  %14 = add i64 %13, %7
  %15 = load i32, ptr getelementptr inbounds (%struct._zend_phpdbg_globals, ptr @phpdbg_globals, i64 0, i32 11), align 8
  %.not.i.i = icmp eq i32 %15, 0
  br i1 %.not.i.i, label %20, label %16

16:                                               ; preds = %1
  store i64 %9, ptr %2, align 8
  %.sroa.4.0..sroa_idx5.i.i = getelementptr inbounds i8, ptr %2, i64 8
  store i64 %14, ptr %.sroa.4.0..sroa_idx5.i.i, align 8
  %17 = getelementptr inbounds i8, ptr %2, i64 16
  store i64 2, ptr %17, align 8
  %18 = getelementptr inbounds i8, ptr %2, i64 24
  store i64 0, ptr %18, align 8
  %19 = call i32 (i32, i64, ...) @ioctl(i32 noundef %15, i64 noundef 2148575745, ptr noundef nonnull %2) #17
  br label %phpdbg_deactivate_watchpoint.exit

20:                                               ; preds = %1
  %21 = inttoptr i64 %9 to ptr
  %22 = tail call i32 @mprotect(ptr noundef %21, i64 noundef %14, i32 noundef 3) #17
  br label %phpdbg_deactivate_watchpoint.exit

phpdbg_deactivate_watchpoint.exit:                ; preds = %16, %20
  call void @llvm.lifetime.end.p0(i64 32, ptr nonnull %2)
  call void @phpdbg_delete_watch_collision(ptr noundef nonnull %0)
  %23 = getelementptr inbounds i8, ptr %0, i64 88
  %24 = load ptr, ptr %23, align 8
  %.not = icmp eq ptr %24, null
  br i1 %.not, label %26, label %25

25:                                               ; preds = %phpdbg_deactivate_watchpoint.exit
  call void @phpdbg_update_watch_collision_elements(ptr noundef nonnull %0)
  br label %47

26:                                               ; preds = %phpdbg_deactivate_watchpoint.exit
  %27 = getelementptr inbounds i8, ptr %0, i64 32
  %28 = getelementptr inbounds i8, ptr %0, i64 60
  %29 = load i32, ptr %28, align 4
  %30 = add i32 %29, 1
  store i32 %30, ptr %28, align 4
  %31 = getelementptr inbounds i8, ptr %0, i64 48
  %32 = load ptr, ptr %31, align 8
  %33 = getelementptr inbounds i8, ptr %0, i64 56
  %34 = load i32, ptr %33, align 8
  %35 = zext i32 %34 to i64
  %36 = getelementptr inbounds %struct._Bucket, ptr %32, i64 %35
  %37 = getelementptr inbounds i8, ptr %0, i64 40
  %38 = load i32, ptr %37, align 8
  %39 = and i32 %38, 4
  %.not21 = icmp eq i32 %39, 0
  call void @llvm.assume(i1 %.not21)
  %.not2225 = icmp eq i32 %34, 0
  br i1 %.not2225, label %._crit_edge, label %.lr.ph

.lr.ph:                                           ; preds = %26, %45
  %.026 = phi ptr [ %46, %45 ], [ %32, %26 ]
  %40 = getelementptr inbounds i8, ptr %.026, i64 8
  %41 = load i8, ptr %40, align 8
  %42 = icmp eq i8 %41, 0
  br i1 %42, label %45, label %43

43:                                               ; preds = %.lr.ph
  %44 = load ptr, ptr %.026, align 8
  call void @phpdbg_update_watch_element_watch(ptr noundef %44)
  br label %45

45:                                               ; preds = %.lr.ph, %43
  %46 = getelementptr inbounds i8, ptr %.026, i64 32
  %.not22 = icmp eq ptr %46, %36
  br i1 %.not22, label %._crit_edge, label %.lr.ph

._crit_edge:                                      ; preds = %45, %26
  call void @zend_hash_destroy(ptr noundef nonnull %27) #17
  call void @_efree(ptr noundef nonnull %0) #17
  br label %47

47:                                               ; preds = %._crit_edge, %25
  ret void
}